target datalayout = "e-m:e-p270:32:32-p271:32:32-p272:64:64-i64:64-i128:128-f80:128-n8:16:32:64-S128"
target triple = "x86_64-pc-linux-gnu"

%class.MarkedFileReader = type { %class.FileReader, i64 }
%class.FileReader = type { ptr, ptr }
%"class.DwarfFile::MarkedDwarfFileReader" = type { %class.MarkedFileReader, i64, i64 }

; Function Attrs: mustprogress nounwind uwtable
define hidden noundef zeroext i1 @_ZN10FileReader4readEPvm(ptr noundef nonnull align 8 dereferenceable(16) %0, ptr noundef %1, i64 noundef %2) #1 align 2 {
  %4 = alloca ptr, align 8
  %5 = alloca ptr, align 8
  %6 = alloca i64, align 8
  store ptr %0, ptr %4, align 8
  store ptr %1, ptr %5, align 8
  store i64 %2, ptr %6, align 8
  %7 = load ptr, ptr %4, align 8
  %8 = load ptr, ptr %5, align 8
  %9 = load i64, ptr %6, align 8
  %10 = getelementptr inbounds %class.FileReader, ptr %7, i32 0, i32 1
  %11 = load ptr, ptr %10, align 8
  %12 = call i64 @fread(ptr noundef %8, i64 noundef %9, i64 noundef 1, ptr noundef %11)
  %13 = icmp eq i64 %12, 1
  ret i1 %13
}

; Function Attrs: mustprogress nounwind uwtable
define hidden noundef zeroext i1 @_ZN9DwarfFile21MarkedDwarfFileReader10read_qwordEPm(ptr noundef nonnull align 8 dereferenceable(40) %0, ptr noundef %1) #1 align 2 {
  %3 = alloca ptr, align 8
  %4 = alloca ptr, align 8
  store ptr %0, ptr %3, align 8
  store ptr %1, ptr %4, align 8
  %5 = load ptr, ptr %3, align 8
  %6 = getelementptr inbounds %"class.DwarfFile::MarkedDwarfFileReader", ptr %5, i32 0, i32 1
  %7 = load i64, ptr %6, align 8
  %8 = add nsw i64 %7, 8
  store i64 %8, ptr %6, align 8
  %9 = load ptr, ptr %4, align 8
  %10 = call noundef zeroext i1 @_ZN10FileReader4readEPvm(ptr noundef nonnull align 8 dereferenceable(16) %5, ptr noundef %9, i64 noundef 8)
  ret i1 %10
}