; Function Attrs: mustprogress nofree nounwind uwtable
define hidden noundef zeroext i1 @_ZN9DwarfFile21MarkedDwarfFileReader10read_qwordEPm(ptr nocapture noundef nonnull align 8 dereferenceable(40) %0, ptr nocapture noundef %1) local_unnamed_addr #3 align 2 {
  %3 = getelementptr inbounds i8, ptr %0, i64 24
  %4 = load i64, ptr %3, align 8
  %5 = add nsw i64 %4, 8
  store i64 %5, ptr %3, align 8
  %6 = getelementptr inbounds i8, ptr %0, i64 8
  %7 = load ptr, ptr %6, align 8
  %8 = tail call i64 @fread(ptr noundef %1, i64 noundef 8, i64 noundef 1, ptr noundef %7)
  %9 = icmp eq i64 %8, 1
  ret i1 %9
}